# built in symbols that must always be preserved
_start1
malloc
free
memcpy
memmove
flascc_uiTickProc
_sync_synchronize

# symbols for C++ exception handling
_Unwind_SjLj_Register
_Unwind_SjLj_Resume
_Unwind_SjLj_Unregister
_Unwind_SjLj_RaiseException

# symbols from libm.a
__muldi3

# symbols for the GLUT based examples
_avm2_glut_keyhandler
glutMainLoopBody


_wrap_Sample_setContext
_wrap_InputGeom_loadMesh
_Z12_wrap_dtSqrtv
_Z12_wrap_dtVaddv
_Z12_wrap_dtVdotv
_Z12_wrap_dtVlenv
_Z12_wrap_dtVmadv
_Z12_wrap_dtVmaxv
_Z12_wrap_dtVminv
_Z12_wrap_dtVsetv
_Z12_wrap_dtVsubv
_Z12_wrap_duRGBAv
_Z12_wrap_rcFreev
_Z12_wrap_rcSqrtv
_Z12_wrap_rcVaddv
_Z12_wrap_rcVdotv
_Z12_wrap_rcVmadv
_Z12_wrap_rcVmaxv
_Z12_wrap_rcVminv
_Z12_wrap_rcVsubv
_Z13_wrap_dtIlog2v
_Z13_wrap_dtVcopyv
_Z13_wrap_dtVdistv
_Z13_wrap_dtVlerpv
_Z13_wrap_duRGBAfv
_Z13_wrap_rcAllocv
_Z13_wrap_rcVcopyv
_Z13_wrap_rcVdistv
_Z14_wrap_dtAlign4v
_Z14_wrap_dtVcrossv
_Z14_wrap_dtVdot2Dv
_Z14_wrap_dtVequalv
_Z14_wrap_dtVscalev
_Z14_wrap_rcGetConv
_Z14_wrap_rcSetConv
_Z14_wrap_rcVcrossv
_Z15_wrap_DU_PI_getv
_Z15_wrap_RC_PI_getv
_Z15_wrap_dtVdist2Dv
_Z15_wrap_dtVlenSqrv
_Z15_wrap_dtVperp2Dv
_Z15_wrap_duLerpColv
_Z15_wrap_duMultColv
_Z15_wrap_rcAddSpanv
_Z16_wrap_dtNextPow2v
_Z16_wrap_dtSwapBytev
_Z16_wrap_dtVdistSqrv
_Z16_wrap_duIntToColv
_Z16_wrap_duTransColv
_Z16_wrap_new_Samplev
_Z16_wrap_new_dtLinkv
_Z16_wrap_new_dtNodev
_Z16_wrap_new_dtPolyv
_Z16_wrap_new_rcSpanv
_Z16_wrap_rcVdistSqrv
_Z17_wrap_dtFreeCrowdv
_Z17_wrap_dtTriArea2Dv
_Z17_wrap_duAppendArcv
_Z17_wrap_duAppendBoxv
_Z17_wrap_duDarkenColv
_Z17_wrap_new_dtCrowdv
_Z18_wrap_DT_NODE_OPENv
_Z18_wrap_DU_DRAW_TRISv
_Z18_wrap_RC_LOG_ERRORv
_Z18_wrap_dtAllocCrowdv
_Z18_wrap_dtCrowd_initv
_Z18_wrap_dtSwapEndianv
_Z18_wrap_dtVdist2DSqrv
_Z18_wrap_dtVnormalizev
_Z18_wrap_new_dtBVNodev
_Z18_wrap_new_rcConfigv
_Z18_wrap_rcCalcBoundsv
_Z18_wrap_rcOffsetPolyv
_Z18_wrap_rcVnormalizev
_Z19_wrap_DT_ALLOC_PERMv
_Z19_wrap_DT_ALLOC_TEMPv
_Z19_wrap_DU_DRAW_LINESv
_Z19_wrap_DU_DRAW_QUADSv
_Z19_wrap_RC_ALLOC_PERMv
_Z19_wrap_RC_ALLOC_TEMPv
_Z19_wrap_RC_MAX_TIMERSv
_Z19_wrap_RC_TIMER_TEMPv
_Z19_wrap_delete_Samplev
_Z19_wrap_delete_dtLinkv
_Z19_wrap_delete_dtNodev
_Z19_wrap_delete_dtPolyv
_Z19_wrap_delete_rcSpanv
_Z19_wrap_dtFreeNavMeshv
_Z19_wrap_dtNode_id_getv
_Z19_wrap_dtNode_id_setv
_Z19_wrap_duAppendArrowv
_Z19_wrap_duAppendCrossv
_Z19_wrap_new_InputGeomv
_Z19_wrap_new_dtNavMeshv
_Z19_wrap_new_rcContextv
_Z19_wrap_new_rcContourv
_Z19_wrap_rcContext_logv
_Z19_wrap_rcMarkBoxAreav
_Z20_wrap_DT_FAILURE_getv
_Z20_wrap_DT_NODE_CLOSEDv
_Z20_wrap_DT_SUCCESS_getv
_Z20_wrap_DU_DRAW_POINTSv
_Z20_wrap_InputGeom_loadv
_Z20_wrap_InputGeom_savev
_Z20_wrap_RC_LOG_WARNINGv
_Z20_wrap_RC_TIMER_TOTALv
_Z20_wrap_delete_dtCrowdv
_Z20_wrap_dtAllocNavMeshv
_Z20_wrap_dtBVNode_i_getv
_Z20_wrap_dtBVNode_i_setv
_Z20_wrap_dtCrowd_updatev
_Z20_wrap_dtLink_ref_getv
_Z20_wrap_dtLink_ref_setv
_Z20_wrap_dtNavMesh_initv
_Z20_wrap_dtNode_pos_getv
_Z20_wrap_dtNode_pos_setv
_Z20_wrap_dtOppositeTilev
_Z20_wrap_dtPoly_getAreav
_Z20_wrap_dtPoly_getTypev
_Z20_wrap_dtPoly_setAreav
_Z20_wrap_dtPoly_setTypev
_Z20_wrap_dtStatusDetailv
_Z20_wrap_dtStatusFailedv
_Z20_wrap_duAppendCirclev
_Z20_wrap_duDebugDrawArcv
_Z20_wrap_duDebugDrawBoxv
_Z20_wrap_new_dtMeshTilev
_Z20_wrap_new_dtNodePoolv
_Z20_wrap_new_rcIntArrayv
_Z20_wrap_new_rcPolyMeshv
_Z20_wrap_new_rcSpanPoolv
_Z20_wrap_rcBuildRegionsv
_Z20_wrap_rcCalcGridSizev
_Z20_wrap_rcCopyPolyMeshv
_Z20_wrap_rcFreePolyMeshv
_Z20_wrap_rcIntArray_popv
_Z21_wrap_DT_EXT_LINK_getv
_Z21_wrap_DT_NULL_IDX_getv
_Z21_wrap_RC_LOG_PROGRESSv
_Z21_wrap_Sample_getCrowdv
_Z21_wrap_delete_dtBVNodev
_Z21_wrap_delete_rcConfigv
_Z21_wrap_dtCrowd_getGridv
_Z21_wrap_dtFreeTileCachev
_Z21_wrap_dtLink_bmax_getv
_Z21_wrap_dtLink_bmax_setv
_Z21_wrap_dtLink_bmin_getv
_Z21_wrap_dtLink_bmin_setv
_Z21_wrap_dtLink_edge_getv
_Z21_wrap_dtLink_edge_setv
_Z21_wrap_dtLink_next_getv
_Z21_wrap_dtLink_next_setv
_Z21_wrap_dtLink_side_getv
_Z21_wrap_dtLink_side_setv
_Z21_wrap_dtNodeQueue_popv
_Z21_wrap_dtNodeQueue_topv
_Z21_wrap_dtNode_cost_getv
_Z21_wrap_dtNode_cost_setv
_Z21_wrap_dtNode_pidx_getv
_Z21_wrap_dtNode_pidx_setv
_Z21_wrap_dtOverlapBoundsv
_Z21_wrap_dtPoly_neis_getv
_Z21_wrap_dtPoly_neis_setv
_Z21_wrap_dtStatusSucceedv
_Z21_wrap_duAppendBoxWirev
_Z21_wrap_duCalcBoxColorsv
_Z21_wrap_duDebugDraw_endv
_Z21_wrap_new_dtNodeQueuev
_Z21_wrap_new_dtPathQueuev
_Z21_wrap_new_dtTileCachev
_Z21_wrap_rcAllocPolyMeshv
_Z21_wrap_rcBuildContoursv
_Z21_wrap_rcBuildPolyMeshv
_Z21_wrap_rcConfig_ch_getv
_Z21_wrap_rcConfig_ch_setv
_Z21_wrap_rcConfig_cs_getv
_Z21_wrap_rcConfig_cs_setv
_Z21_wrap_rcGetDirOffsetXv
_Z21_wrap_rcGetDirOffsetYv
_Z21_wrap_rcIntArray_pushv
_Z21_wrap_rcIntArray_sizev
_Z21_wrap_rcSpan_area_getv
_Z21_wrap_rcSpan_area_setv
_Z21_wrap_rcSpan_next_getv
_Z21_wrap_rcSpan_next_setv
_Z21_wrap_rcSpan_smax_getv
_Z21_wrap_rcSpan_smax_setv
_Z21_wrap_rcSpan_smin_getv
_Z21_wrap_rcSpan_smin_setv
_Z22_wrap_DT_MAX_AREAS_getv
_Z22_wrap_DT_NULL_LINK_getv
_Z22_wrap_RC_NULL_AREA_getv
_Z22_wrap_delete_InputGeomv
_Z22_wrap_delete_dtNavMeshv
_Z22_wrap_delete_rcContextv
_Z22_wrap_delete_rcContourv
_Z22_wrap_dtAllocTileCachev
_Z22_wrap_dtCalcPolyCenterv
_Z22_wrap_dtCrowd_addAgentv
_Z22_wrap_dtCrowd_getAgentv
_Z22_wrap_dtNodePool_clearv
_Z22_wrap_dtNodeQueue_pushv
_Z22_wrap_dtNode_flags_getv
_Z22_wrap_dtNode_flags_setv
_Z22_wrap_dtNode_total_getv
_Z22_wrap_dtNode_total_setv
_Z22_wrap_dtPathQueue_initv
_Z22_wrap_dtPointInPolygonv
_Z22_wrap_dtPoly_flags_getv
_Z22_wrap_dtPoly_flags_setv
_Z22_wrap_dtPoly_verts_getv
_Z22_wrap_dtPoly_verts_setv
_Z22_wrap_dtTileCache_initv
_Z22_wrap_duAppendCylinderv
_Z22_wrap_duDebugDrawArrowv
_Z22_wrap_duDebugDrawCrossv
_Z22_wrap_new_ConvexVolumev
_Z22_wrap_new_dtCrowdAgentv
_Z22_wrap_new_dtMeshHeaderv
_Z22_wrap_new_dtPolyDetailv
_Z22_wrap_new_rcContourSetv
_Z22_wrap_rcAllocSetCustomv
_Z22_wrap_rcFreeContourSetv
_Z23_wrap_DT_OBSTACLE_EMPTYv
_Z23_wrap_DT_TILE_FREE_DATAv
_Z23_wrap_InputGeom_getMeshv
_Z23_wrap_RC_BORDER_REG_getv
_Z23_wrap_Sample_getNavMeshv
_Z23_wrap_Sample_handleStepv
_Z23_wrap_Sample_setContextv
_Z23_wrap_delete_dtMeshTilev
_Z23_wrap_delete_dtNodePoolv
_Z23_wrap_delete_rcIntArrayv
_Z23_wrap_delete_rcPolyMeshv
_Z23_wrap_delete_rcSpanPoolv
_Z23_wrap_dtBVNode_bmax_getv
_Z23_wrap_dtBVNode_bmax_setv
_Z23_wrap_dtBVNode_bmin_getv
_Z23_wrap_dtBVNode_bmin_setv
_Z23_wrap_dtCrowd_getFilterv
_Z23_wrap_dtNavMesh_addTilev
_Z23_wrap_dtNavMesh_getTilev
_Z23_wrap_dtNodePool_equalsv
_Z23_wrap_dtNodeQueue_clearv
_Z23_wrap_dtNodeQueue_emptyv
_Z23_wrap_duAppendBoxPointsv
_Z23_wrap_duDebugDrawCirclev
_Z23_wrap_duDebugDrawGridXZv
_Z23_wrap_duDebugDraw_beginv
_Z23_wrap_duDisplayList_endv
_Z23_wrap_new_AS3_rcContextv
_Z23_wrap_new_dtQueryFilterv
_Z23_wrap_new_rcCompactCellv
_Z23_wrap_new_rcCompactSpanv
_Z23_wrap_new_rcHeightfieldv
_Z23_wrap_rcAllocContourSetv
_Z23_wrap_rcConfig_bmax_getv
_Z23_wrap_rcConfig_bmax_setv
_Z23_wrap_rcConfig_bmin_getv
_Z23_wrap_rcConfig_bmin_setv
_Z23_wrap_rcContour_reg_getv
_Z23_wrap_rcContour_reg_setv
_Z23_wrap_rcFreeHeightFieldv
_Z23_wrap_rcIntArray_resizev
_Z23_wrap_rcMergePolyMeshesv
_Z23_wrap_rcPolyMesh_ch_getv
_Z23_wrap_rcPolyMesh_ch_setv
_Z23_wrap_rcPolyMesh_cs_getv
_Z23_wrap_rcPolyMesh_cs_setv
_Z24_wrap_DT_IN_PROGRESS_getv
_Z24_wrap_DT_POLYTYPE_GROUNDv
_Z24_wrap_DT_WRONG_MAGIC_getv
_Z24_wrap_InputGeom_loadMeshv
_Z24_wrap_RC_AREA_BORDER_getv
_Z24_wrap_Sample_handleBuildv
_Z24_wrap_delete_dtNodeQueuev
_Z24_wrap_delete_dtPathQueuev
_Z24_wrap_delete_dtTileCachev
_Z24_wrap_delete_duDebugDrawv
_Z24_wrap_dtFreeNavMeshQueryv
_Z24_wrap_dtMarkCylinderAreav
_Z24_wrap_dtMeshHeader_x_getv
_Z24_wrap_dtMeshHeader_x_setv
_Z24_wrap_dtMeshHeader_y_getv
_Z24_wrap_dtMeshHeader_y_setv
_Z24_wrap_dtNodePool_getNextv
_Z24_wrap_dtNodePool_getNodev
_Z24_wrap_dtNodeQueue_equalsv
_Z24_wrap_dtNodeQueue_modifyv
_Z24_wrap_dtPathQueue_updatev
_Z24_wrap_dtStatusInProgressv
_Z24_wrap_dtTileCache_updatev
_Z24_wrap_duDebugDrawBoxWirev
_Z24_wrap_duDebugDrawNavMeshv
_Z24_wrap_duDebugDrawTriMeshv
_Z24_wrap_duDebugDraw_vertexv
_Z24_wrap_duDisplayList_drawv
_Z24_wrap_new_dtNavMeshQueryv
_Z24_wrap_new_dtPathCorridorv
_Z24_wrap_rcAllocHeightfieldv
_Z24_wrap_rcConfig_width_getv
_Z24_wrap_rcConfig_width_setv
_Z24_wrap_rcContext_resetLogv
_Z24_wrap_rcContour_area_getv
_Z24_wrap_rcContour_area_setv
_Z24_wrap_rcFilterLedgeSpansv
_Z24_wrap_rcIntArray_valueAtv
_Z24_wrap_rcMarkCylinderAreav
_Z24_wrap_rcPolyMesh_nvp_getv
_Z24_wrap_rcPolyMesh_nvp_setv
_Z25_wrap_DT_CROWD_SEPARATIONv
_Z25_wrap_DT_OUT_OF_NODES_getv
_Z25_wrap_DT_STRAIGHTPATH_ENDv
_Z25_wrap_RC_TIMER_ERODE_AREAv
_Z25_wrap_Sample_getBoundsMaxv
_Z25_wrap_Sample_getBoundsMinv
_Z25_wrap_Sample_getInputGeomv
_Z25_wrap_Sample_handleUpdatev
_Z25_wrap_delete_ConvexVolumev
_Z25_wrap_delete_dtCrowdAgentv
_Z25_wrap_delete_dtMeshHeaderv
_Z25_wrap_delete_dtPolyDetailv
_Z25_wrap_delete_rcContourSetv
_Z25_wrap_dtAllocNavMeshQueryv
_Z25_wrap_dtCreateNavMeshDatav
_Z25_wrap_dtCrowd_removeAgentv
_Z25_wrap_dtFreeProximityGridv
_Z25_wrap_dtMeshTile_data_getv
_Z25_wrap_dtMeshTile_data_setv
_Z25_wrap_dtMeshTile_next_getv
_Z25_wrap_dtMeshTile_next_setv
_Z25_wrap_dtMeshTile_salt_getv
_Z25_wrap_dtMeshTile_salt_setv
_Z25_wrap_dtNavMeshQuery_initv
_Z25_wrap_dtNavMesh_getParamsv
_Z25_wrap_dtNavMesh_getTileAtv
_Z25_wrap_dtNodePool_findNodev
_Z25_wrap_dtNodePool_getFirstv
_Z25_wrap_dtOverlapPolyPoly2Dv
_Z25_wrap_dtPathCorridor_initv
_Z25_wrap_dtPathQueue_requestv
_Z25_wrap_dtTileCache_addTilev
_Z25_wrap_dtTileCache_getTilev
_Z25_wrap_duDebugDrawContoursv
_Z25_wrap_duDebugDrawCylinderv
_Z25_wrap_duDebugDrawPolyMeshv
_Z25_wrap_duDebugDraw_texturev
_Z25_wrap_duDisplayList_beginv
_Z25_wrap_duDisplayList_clearv
_Z25_wrap_new_dtLocalBoundaryv
_Z25_wrap_new_dtNavMeshParamsv
_Z25_wrap_new_dtProximityGridv
_Z25_wrap_new_rcChunkyTriMeshv
_Z25_wrap_rcCompactSpan_h_getv
_Z25_wrap_rcCompactSpan_h_setv
_Z25_wrap_rcCompactSpan_y_getv
_Z25_wrap_rcCompactSpan_y_setv
_Z25_wrap_rcConfig_height_getv
_Z25_wrap_rcConfig_height_setv
_Z25_wrap_rcContext_enableLogv
_Z25_wrap_rcContext_stopTimerv
_Z25_wrap_rcContourSet_ch_getv
_Z25_wrap_rcContourSet_ch_setv
_Z25_wrap_rcContourSet_cs_getv
_Z25_wrap_rcContourSet_cs_setv
_Z25_wrap_rcContour_verts_getv
_Z25_wrap_rcContour_verts_setv
_Z25_wrap_rcCreateHeightfieldv
_Z25_wrap_rcErodeWalkableAreav
_Z25_wrap_rcPolyMesh_bmax_getv
_Z25_wrap_rcPolyMesh_bmax_setv
_Z25_wrap_rcPolyMesh_bmin_getv
_Z25_wrap_rcPolyMesh_bmin_setv
_Z25_wrap_rcPolyMesh_regs_getv
_Z25_wrap_rcPolyMesh_regs_setv
_Z25_wrap_rcRasterizeTrianglev
_Z25_wrap_rcSpanPool_next_getv
_Z25_wrap_rcSpanPool_next_setv
_Z26_wrap_DT_INVALID_PARAM_getv
_Z26_wrap_DT_NAVMESH_MAGIC_getv
_Z26_wrap_DT_OBSTACLE_REMOVINGv
_Z26_wrap_DT_OUT_OF_MEMORY_getv
_Z26_wrap_DT_PATHQ_INVALID_getv
_Z26_wrap_DT_WRONG_VERSION_getv
_Z26_wrap_RC_BORDER_VERTEX_getv
_Z26_wrap_RC_MESH_NULL_IDX_getv
_Z26_wrap_RC_NOT_CONNECTED_getv
_Z26_wrap_RC_TIMER_MEDIAN_AREAv
_Z26_wrap_RC_WALKABLE_AREA_getv
_Z26_wrap_SAMPLE_POLYAREA_DOORv
_Z26_wrap_SAMPLE_POLYAREA_JUMPv
_Z26_wrap_SAMPLE_POLYAREA_ROADv
_Z26_wrap_SAMPLE_POLYFLAGS_ALLv
_Z26_wrap_Sample_getAgentClimbv
_Z26_wrap_delete_AS3_rcContextv
_Z26_wrap_delete_dtQueryFilterv
_Z26_wrap_delete_duDisplayListv
_Z26_wrap_delete_rcCompactCellv
_Z26_wrap_delete_rcCompactSpanv
_Z26_wrap_delete_rcHeightfieldv
_Z26_wrap_dtAllocProximityGridv
_Z26_wrap_dtCrowdAgent_vel_getv
_Z26_wrap_dtCrowdAgent_vel_setv
_Z26_wrap_dtCrowd_getPathQueuev
_Z26_wrap_dtDistancePtSegSqr2Dv
_Z26_wrap_dtFreeTileCacheLayerv
_Z26_wrap_dtMeshTile_flags_getv
_Z26_wrap_dtMeshTile_flags_setv
_Z26_wrap_dtMeshTile_links_getv
_Z26_wrap_dtMeshTile_links_setv
_Z26_wrap_dtMeshTile_polys_getv
_Z26_wrap_dtMeshTile_polys_setv
_Z26_wrap_dtMeshTile_verts_getv
_Z26_wrap_dtMeshTile_verts_setv
_Z26_wrap_dtNavMesh_getTileRefv
_Z26_wrap_dtNavMesh_getTilesAtv
_Z26_wrap_dtNavMesh_removeTilev
_Z26_wrap_dtOverlapQuantBoundsv
_Z26_wrap_dtPathCorridor_resetv
_Z26_wrap_dtPoly_firstLink_getv
_Z26_wrap_dtPoly_firstLink_setv
_Z26_wrap_dtPoly_vertCount_getv
_Z26_wrap_dtPoly_vertCount_setv
_Z26_wrap_dtProximityGrid_initv
_Z26_wrap_dtTileCache_getAllocv
_Z26_wrap_duAppendCylinderWirev
_Z26_wrap_duDebugDraw_vertexUVv
_Z26_wrap_duDisplayList_vertexv
_Z26_wrap_new_dtCompressedTilev
_Z26_wrap_new_dtCrowdNeighbourv
_Z26_wrap_new_dtObstacleCirclev
_Z26_wrap_new_dtTileCacheAllocv
_Z26_wrap_new_dtTileCacheLayerv
_Z26_wrap_new_rcPolyMeshDetailv
_Z26_wrap_rcBuildDistanceFieldv
_Z26_wrap_rcContext_startTimerv
_Z26_wrap_rcContour_nverts_getv
_Z26_wrap_rcContour_nverts_setv
_Z26_wrap_rcContour_rverts_getv
_Z26_wrap_rcContour_rverts_setv
_Z26_wrap_rcFreePolyMeshDetailv
_Z26_wrap_rcHeightfield_ch_getv
_Z26_wrap_rcHeightfield_ch_setv
_Z26_wrap_rcHeightfield_cs_getv
_Z26_wrap_rcHeightfield_cs_setv
_Z26_wrap_rcMarkConvexPolyAreav
_Z26_wrap_rcPolyMesh_areas_getv
_Z26_wrap_rcPolyMesh_areas_setv
_Z26_wrap_rcPolyMesh_flags_getv
_Z26_wrap_rcPolyMesh_flags_setv
_Z26_wrap_rcPolyMesh_polys_getv
_Z26_wrap_rcPolyMesh_polys_setv
_Z26_wrap_rcPolyMesh_verts_getv
_Z26_wrap_rcPolyMesh_verts_setv
_Z26_wrap_rcRasterizeTrianglesv
_Z26_wrap_rcSpanPool_items_getv
_Z26_wrap_rcSpanPool_items_setv
_Z27_wrap_ConvexVolume_area_getv
_Z27_wrap_ConvexVolume_area_setv
_Z27_wrap_ConvexVolume_hmax_getv
_Z27_wrap_ConvexVolume_hmax_setv
_Z27_wrap_ConvexVolume_hmin_getv
_Z27_wrap_ConvexVolume_hmin_setv
_Z27_wrap_DT_CROWD_OPTIMIZE_VISv
_Z27_wrap_DT_OBSTACLE_PROCESSEDv
_Z27_wrap_DT_PARTIAL_RESULT_getv
_Z27_wrap_DT_STRAIGHTPATH_STARTv
_Z27_wrap_InputGeom_raycastMeshv
_Z27_wrap_MAX_CONVEXVOL_PTS_getv
_Z27_wrap_RC_SPANS_PER_POOL_getv
_Z27_wrap_RC_TIMER_BUILD_LAYERSv
_Z27_wrap_SAMPLE_POLYAREA_GRASSv
_Z27_wrap_SAMPLE_POLYAREA_WATERv
_Z27_wrap_SAMPLE_POLYFLAGS_DOORv
_Z27_wrap_SAMPLE_POLYFLAGS_JUMPv
_Z27_wrap_SAMPLE_POLYFLAGS_SWIMv
_Z27_wrap_SAMPLE_POLYFLAGS_WALKv
_Z27_wrap_Sample_getAgentHeightv
_Z27_wrap_Sample_getAgentRadiusv
_Z27_wrap_Sample_handleSettingsv
_Z27_wrap_Sample_m_cellSize_getv
_Z27_wrap_Sample_m_cellSize_setv
_Z27_wrap_delete_dtNavMeshQueryv
_Z27_wrap_delete_dtPathCorridorv
_Z27_wrap_dtBuildTileCacheLayerv
_Z27_wrap_dtCrowdAgent_disp_getv
_Z27_wrap_dtCrowdAgent_disp_setv
_Z27_wrap_dtCrowdAgent_dvel_getv
_Z27_wrap_dtCrowdAgent_dvel_setv
_Z27_wrap_dtCrowdAgent_neis_getv
_Z27_wrap_dtCrowdAgent_neis_setv
_Z27_wrap_dtCrowdAgent_npos_getv
_Z27_wrap_dtCrowdAgent_npos_setv
_Z27_wrap_dtCrowdAgent_nvel_getv
_Z27_wrap_dtCrowdAgent_nvel_setv
_Z27_wrap_dtCrowd_getAgentCountv
_Z27_wrap_dtLocalBoundary_resetv
_Z27_wrap_dtMeshHeader_bmax_getv
_Z27_wrap_dtMeshHeader_bmax_setv
_Z27_wrap_dtMeshHeader_bmin_getv
_Z27_wrap_dtMeshHeader_bmin_setv
_Z27_wrap_dtMeshTile_bvTree_getv
_Z27_wrap_dtMeshTile_bvTree_setv
_Z27_wrap_dtMeshTile_header_getv
_Z27_wrap_dtMeshTile_header_setv
_Z27_wrap_dtNavMesh_calcTileLocv
_Z27_wrap_dtNavMesh_getMaxTilesv
_Z27_wrap_dtNavMesh_getPolyAreav
_Z27_wrap_dtNavMesh_setPolyAreav
_Z27_wrap_dtNodePool_getMemUsedv
_Z27_wrap_dtNodePool_getNodeIdxv
_Z27_wrap_dtPathCorridor_getPosv
_Z27_wrap_dtProximityGrid_clearv
_Z27_wrap_dtQueryFilter_getCostv
_Z27_wrap_dtTileCacheAlloc_freev
_Z27_wrap_dtTileCache_getParamsv
_Z27_wrap_dtTileCache_getTileAtv
_Z27_wrap_duDebugDraw_depthMaskv
_Z27_wrap_duDebugDraw_vertexXYZv
_Z27_wrap_new_dtObstacleSegmentv
_Z27_wrap_new_dtTileCacheParamsv
_Z27_wrap_rcAllocPolyMeshDetailv
_Z27_wrap_rcBuildPolyMeshDetailv
_Z27_wrap_rcCompactSpan_con_getv
_Z27_wrap_rcCompactSpan_con_setv
_Z27_wrap_rcCompactSpan_reg_getv
_Z27_wrap_rcCompactSpan_reg_setv
_Z27_wrap_rcConfig_tileSize_getv
_Z27_wrap_rcConfig_tileSize_setv
_Z27_wrap_rcContext_enableTimerv
_Z27_wrap_rcContext_resetTimersv
_Z27_wrap_rcContourSet_bmax_getv
_Z27_wrap_rcContourSet_bmax_setv
_Z27_wrap_rcContourSet_bmin_getv
_Z27_wrap_rcContourSet_bmin_setv
_Z27_wrap_rcContour_nrverts_getv
_Z27_wrap_rcContour_nrverts_setv
_Z27_wrap_rcCreateChunkyTriMeshv
_Z27_wrap_rcPolyMesh_npolys_getv
_Z27_wrap_rcPolyMesh_npolys_setv
_Z27_wrap_rcPolyMesh_nverts_getv
_Z27_wrap_rcPolyMesh_nverts_setv
_Z28_wrap_ConvexVolume_verts_getv
_Z28_wrap_ConvexVolume_verts_setv
_Z28_wrap_DT_CROWD_OPTIMIZE_TOPOv
_Z28_wrap_DT_NAVMESH_VERSION_getv
_Z28_wrap_DT_OBSTACLE_PROCESSINGv
_Z28_wrap_DT_TILECACHE_MAGIC_getv
_Z28_wrap_RC_SPAN_MAX_HEIGHT_getv
_Z28_wrap_RC_TIMER_BUILD_REGIONSv
_Z28_wrap_RC_TIMER_FILTER_BORDERv
_Z28_wrap_RC_TIMER_MARK_BOX_AREAv
_Z28_wrap_SAMPLE_POLYAREA_GROUNDv
_Z28_wrap_Sample_getNavMeshQueryv
_Z28_wrap_delete_dtLocalBoundaryv
_Z28_wrap_delete_dtNavMeshParamsv
_Z28_wrap_delete_dtProximityGridv
_Z28_wrap_delete_rcChunkyTriMeshv
_Z28_wrap_dtCrowdAgent_nneis_getv
_Z28_wrap_dtCrowdAgent_nneis_setv
_Z28_wrap_dtCrowdAgent_state_getv
_Z28_wrap_dtCrowdAgent_state_setv
_Z28_wrap_dtLocalBoundary_updatev
_Z28_wrap_dtMeshHeader_layer_getv
_Z28_wrap_dtMeshHeader_layer_setv
_Z28_wrap_dtMeshHeader_magic_getv
_Z28_wrap_dtMeshHeader_magic_setv
_Z28_wrap_dtNavMeshQuery_raycastv
_Z28_wrap_dtNavMesh_decodePolyIdv
_Z28_wrap_dtNavMesh_encodePolyIdv
_Z28_wrap_dtNavMesh_getPolyFlagsv
_Z28_wrap_dtNavMesh_getTileByRefv
_Z28_wrap_dtNavMesh_getTileRefAtv
_Z28_wrap_dtNavMesh_setPolyFlagsv
_Z28_wrap_dtNodePool_getHashSizev
_Z28_wrap_dtNodePool_getMaxNodesv
_Z28_wrap_dtNodeQueue_getMemUsedv
_Z28_wrap_dtObstacleCircle_p_getv
_Z28_wrap_dtObstacleCircle_p_setv
_Z28_wrap_dtPathCorridor_getPathv
_Z28_wrap_dtPathCorridor_isValidv
_Z28_wrap_dtPoly_areaAndtype_getv
_Z28_wrap_dtPoly_areaAndtype_setv
_Z28_wrap_dtTileCacheAlloc_allocv
_Z28_wrap_dtTileCacheAlloc_resetv
_Z28_wrap_dtTileCache_getTileRefv
_Z28_wrap_dtTileCache_getTilesAtv
_Z28_wrap_dtTileCache_queryTilesv
_Z28_wrap_dtTileCache_removeTilev
_Z28_wrap_duDebugDrawNavMeshPolyv
_Z28_wrap_duDebugDrawRawContoursv
_Z28_wrap_new_dtCrowdAgentParamsv
_Z28_wrap_new_dtTileCacheContourv
_Z28_wrap_new_rcHeightfieldLayerv
_Z28_wrap_rcBuildRegionsMonotonev
_Z28_wrap_rcContourSet_conts_getv
_Z28_wrap_rcContourSet_conts_setv
_Z28_wrap_rcContourSet_width_getv
_Z28_wrap_rcContourSet_width_setv
_Z28_wrap_rcHeightfield_bmax_getv
_Z28_wrap_rcHeightfield_bmax_setv
_Z28_wrap_rcHeightfield_bmin_getv
_Z28_wrap_rcHeightfield_bmin_setv
_Z28_wrap_rcMergePolyMeshDetailsv
_Z29_wrap_ConvexVolume_nverts_getv
_Z29_wrap_ConvexVolume_nverts_setv
_Z29_wrap_DT_BUFFER_TOO_SMALL_getv
_Z29_wrap_DT_MAX_PATTERN_DIVS_getv
_Z29_wrap_InputGeom_getChunkyMeshv
_Z29_wrap_RC_CONTOUR_REG_MASK_getv
_Z29_wrap_RC_SPAN_HEIGHT_BITS_getv
_Z29_wrap_RC_TIMER_BUILD_CONTOURSv
_Z29_wrap_RC_TIMER_BUILD_POLYMESHv
_Z29_wrap_RC_TIMER_MERGE_POLYMESHv
_Z29_wrap_Sample_m_cellHeight_getv
_Z29_wrap_Sample_m_cellHeight_setv
_Z29_wrap_Sample_m_edgeMaxLen_getv
_Z29_wrap_Sample_m_edgeMaxLen_setv
_Z29_wrap_delete_dtCompressedTilev
_Z29_wrap_delete_dtCrowdNeighbourv
_Z29_wrap_delete_dtObstacleCirclev
_Z29_wrap_delete_dtTileCacheAllocv
_Z29_wrap_delete_dtTileCacheLayerv
_Z29_wrap_delete_rcPolyMeshDetailv
_Z29_wrap_dtBuildTileCacheRegionsv
_Z29_wrap_dtCrowdAgent_active_getv
_Z29_wrap_dtCrowdAgent_active_setv
_Z29_wrap_dtCrowdAgent_params_getv
_Z29_wrap_dtCrowdAgent_params_setv
_Z29_wrap_dtCrowd_getActiveAgentsv
_Z29_wrap_dtCrowd_getNavMeshQueryv
_Z29_wrap_dtCrowd_getQueryExtentsv
_Z29_wrap_dtCrowd_resetMoveTargetv
_Z29_wrap_dtFreeTileCachePolyMeshv
_Z29_wrap_dtLocalBoundary_isValidv
_Z29_wrap_dtMergeCorridorEndMovedv
_Z29_wrap_dtMeshHeader_userId_getv
_Z29_wrap_dtMeshHeader_userId_setv
_Z29_wrap_dtMeshTile_dataSize_getv
_Z29_wrap_dtMeshTile_dataSize_setv
_Z29_wrap_dtNavMeshDataSwapEndianv
_Z29_wrap_dtNavMeshQuery_findPathv
_Z29_wrap_dtNodePool_getNodeAtIdxv
_Z29_wrap_dtNodeQueue_getCapacityv
_Z29_wrap_dtObstacleCircle_dp_getv
_Z29_wrap_dtObstacleCircle_dp_setv
_Z29_wrap_dtObstacleCircle_np_getv
_Z29_wrap_dtObstacleCircle_np_setv
_Z29_wrap_dtObstacleSegment_p_getv
_Z29_wrap_dtObstacleSegment_p_setv
_Z29_wrap_dtObstacleSegment_q_getv
_Z29_wrap_dtObstacleSegment_q_setv
_Z29_wrap_dtPathQueue_getNavQueryv
_Z29_wrap_dtProximityGrid_addItemv
_Z29_wrap_dtTileCache_addObstaclev
_Z29_wrap_dtTileCache_getObstaclev
_Z29_wrap_duDebugDrawCylinderWirev
_Z29_wrap_duDebugDrawNavMeshNodesv
_Z29_wrap_duDebugDrawTriMeshSlopev
_Z29_wrap_duDebugDraw_vertexXYZUVv
_Z29_wrap_duDisplayList_depthMaskv
_Z29_wrap_duDisplayList_vertexXYZv
_Z29_wrap_new_dtOffMeshConnectionv
_Z29_wrap_new_dtTileCacheObstaclev
_Z29_wrap_new_dtTileCachePolyMeshv
_Z29_wrap_new_rcChunkyTriMeshNodev
_Z29_wrap_rcCompactCell_count_getv
_Z29_wrap_rcCompactCell_count_setv
_Z29_wrap_rcCompactCell_index_getv
_Z29_wrap_rcCompactCell_index_setv
_Z29_wrap_rcConfig_borderSize_getv
_Z29_wrap_rcConfig_borderSize_setv
_Z29_wrap_rcConfig_maxEdgeLen_getv
_Z29_wrap_rcConfig_maxEdgeLen_setv
_Z29_wrap_rcContourSet_height_getv
_Z29_wrap_rcContourSet_height_setv
_Z29_wrap_rcContourSet_nconts_getv
_Z29_wrap_rcContourSet_nconts_setv
_Z29_wrap_rcHeightfield_pools_getv
_Z29_wrap_rcHeightfield_pools_setv
_Z29_wrap_rcHeightfield_spans_getv
_Z29_wrap_rcHeightfield_spans_setv
_Z29_wrap_rcHeightfield_width_getv
_Z29_wrap_rcHeightfield_width_setv
_Z29_wrap_rcMarkWalkableTrianglesv
_Z29_wrap_rcPolyMesh_maxpolys_getv
_Z29_wrap_rcPolyMesh_maxpolys_setv
_Z30_wrap_DT_MAX_PATTERN_RINGS_getv
_Z30_wrap_DT_MAX_TOUCHED_TILES_getv
_Z30_wrap_DT_OFFMESH_CON_BIDIR_getv
_Z30_wrap_DT_TILECACHE_VERSION_getv
_Z30_wrap_DT_VERTS_PER_POLYGON_getv
_Z30_wrap_RC_TIMER_FILTER_WALKABLEv
_Z30_wrap_Sample_handleMeshChangedv
_Z30_wrap_Sample_m_agentHeight_getv
_Z30_wrap_Sample_m_agentHeight_setv
_Z30_wrap_Sample_m_agentRadius_getv
_Z30_wrap_Sample_m_agentRadius_setv
_Z30_wrap_delete_dtObstacleSegmentv
_Z30_wrap_delete_dtTileCacheParamsv
_Z30_wrap_dtAllocTileCachePolyMeshv
_Z30_wrap_dtBuildTileCacheContoursv
_Z30_wrap_dtBuildTileCachePolyMeshv
_Z30_wrap_dtClosestPtPointTrianglev
_Z30_wrap_dtCrowdNeighbour_idx_getv
_Z30_wrap_dtCrowdNeighbour_idx_setv
_Z30_wrap_dtDistancePtPolyEdgesSqrv
_Z30_wrap_dtIntersectSegmentPoly2Dv
_Z30_wrap_dtMeshHeader_version_getv
_Z30_wrap_dtMeshHeader_version_setv
_Z30_wrap_dtNavMeshParams_orig_getv
_Z30_wrap_dtNavMeshParams_orig_setv
_Z30_wrap_dtNavMesh_getPolyRefBasev
_Z30_wrap_dtNavMesh_isValidPolyRefv
_Z30_wrap_dtNavMesh_storeTileStatev
_Z30_wrap_dtObstacleCircle_rad_getv
_Z30_wrap_dtObstacleCircle_rad_setv
_Z30_wrap_dtObstacleCircle_vel_getv
_Z30_wrap_dtObstacleCircle_vel_setv
_Z30_wrap_dtPathCorridor_getTargetv
_Z30_wrap_dtPolyDetail_triBase_getv
_Z30_wrap_dtPolyDetail_triBase_setv
_Z30_wrap_dtQueryFilter_passFilterv
_Z30_wrap_dtTileCacheParams_ch_getv
_Z30_wrap_dtTileCacheParams_ch_setv
_Z30_wrap_dtTileCacheParams_cs_getv
_Z30_wrap_dtTileCacheParams_cs_setv
_Z30_wrap_dtTileCache_encodeTileIdv
_Z30_wrap_dtTileCache_getTileByRefv
_Z30_wrap_dtTileCache_getTileCountv
_Z30_wrap_duDebugDrawNavMeshBVTreev
_Z30_wrap_new_Sample_TempObstaclesv
_Z30_wrap_new_rcCompactHeightfieldv
_Z30_wrap_rcBuildHeightfieldLayersv
_Z30_wrap_rcChunkyTriMesh_tris_getv
_Z30_wrap_rcChunkyTriMesh_tris_setv
_Z30_wrap_rcFreeCompactHeightfieldv
_Z30_wrap_rcHeightfield_height_getv
_Z30_wrap_rcHeightfield_height_setv
_Z31_wrap_DT_CROWDAGENT_TARGET_NONEv
_Z31_wrap_DT_CROWD_ANTICIPATE_TURNSv
_Z31_wrap_DT_STATUS_DETAIL_MASK_getv
_Z31_wrap_DT_TILECACHE_NULL_IDX_getv
_Z31_wrap_DU_DRAWNAVMESH_CLOSEDLISTv
_Z31_wrap_InputGeom_addConvexVolumev
_Z31_wrap_SAMPLE_POLYFLAGS_DISABLEDv
_Z31_wrap_Sample_m_edgeMaxError_getv
_Z31_wrap_Sample_m_edgeMaxError_setv
_Z31_wrap_Sample_m_vertsPerPoly_getv
_Z31_wrap_Sample_m_vertsPerPoly_setv
_Z31_wrap_delete_dtCrowdAgentParamsv
_Z31_wrap_delete_dtTileCacheContourv
_Z31_wrap_delete_rcHeightfieldLayerv
_Z31_wrap_dtCompressedTile_data_getv
_Z31_wrap_dtCompressedTile_data_setv
_Z31_wrap_dtCompressedTile_next_getv
_Z31_wrap_dtCompressedTile_next_setv
_Z31_wrap_dtCompressedTile_salt_getv
_Z31_wrap_dtCompressedTile_salt_setv
_Z31_wrap_dtCrowdAgent_boundary_getv
_Z31_wrap_dtCrowdAgent_boundary_setv
_Z31_wrap_dtCrowdAgent_corridor_getv
_Z31_wrap_dtCrowdAgent_corridor_setv
_Z31_wrap_dtCrowdAgent_ncorners_getv
_Z31_wrap_dtCrowdAgent_ncorners_setv
_Z31_wrap_dtCrowdNeighbour_dist_getv
_Z31_wrap_dtCrowdNeighbour_dist_setv
_Z31_wrap_dtCrowd_getEditableFilterv
_Z31_wrap_dtCrowd_requestMoveTargetv
_Z31_wrap_dtFreeTileCacheContourSetv
_Z31_wrap_dtLocalBoundary_getCenterv
_Z31_wrap_dtMergeCorridorStartMovedv
_Z31_wrap_dtMeshTile_detailTris_getv
_Z31_wrap_dtMeshTile_detailTris_setv
_Z31_wrap_dtNavMeshHeaderSwapEndianv
_Z31_wrap_dtObstacleCircle_dvel_getv
_Z31_wrap_dtObstacleCircle_dvel_setv
_Z31_wrap_dtPathQueue_getPathResultv
_Z31_wrap_dtPolyDetail_triCount_getv
_Z31_wrap_dtPolyDetail_triCount_setv
_Z31_wrap_dtPolyDetail_vertBase_getv
_Z31_wrap_dtPolyDetail_vertBase_setv
_Z31_wrap_dtProximityGrid_getBoundsv
_Z31_wrap_dtQueryFilter_getAreaCostv
_Z31_wrap_dtQueryFilter_setAreaCostv
_Z31_wrap_dtRandomPointInConvexPolyv
_Z31_wrap_dtTileCacheLayer_cons_getv
_Z31_wrap_dtTileCacheLayer_cons_setv
_Z31_wrap_dtTileCacheLayer_regs_getv
_Z31_wrap_dtTileCacheLayer_regs_setv
_Z31_wrap_dtTileCache_getCompressorv
_Z31_wrap_duDebugDrawNavMeshPortalsv
_Z31_wrap_duDebugDrawPolyMeshDetailv
_Z31_wrap_new_dtCrowdAgentAnimationv
_Z31_wrap_new_dtCrowdAgentDebugInfov
_Z31_wrap_new_dtNavMeshCreateParamsv
_Z31_wrap_new_dtTileCacheContourSetv
_Z31_wrap_new_rcHeightfieldLayerSetv
_Z31_wrap_rcAllocCompactHeightfieldv
_Z31_wrap_rcBuildCompactHeightfieldv
_Z31_wrap_rcChunkyTriMeshNode_i_getv
_Z31_wrap_rcChunkyTriMeshNode_i_setv
_Z31_wrap_rcChunkyTriMeshNode_n_getv
_Z31_wrap_rcChunkyTriMeshNode_n_setv
_Z31_wrap_rcChunkyTriMesh_nodes_getv
_Z31_wrap_rcChunkyTriMesh_nodes_setv
_Z31_wrap_rcChunkyTriMesh_ntris_getv
_Z31_wrap_rcChunkyTriMesh_ntris_setv
_Z31_wrap_rcFreeHeightfieldLayerSetv
_Z31_wrap_rcGetHeightFieldSpanCountv
_Z31_wrap_rcHeightfieldLayer_ch_getv
_Z31_wrap_rcHeightfieldLayer_ch_setv
_Z31_wrap_rcHeightfieldLayer_cs_getv
_Z31_wrap_rcHeightfieldLayer_cs_setv
_Z31_wrap_rcPolyMeshDetail_tris_getv
_Z31_wrap_rcPolyMeshDetail_tris_setv
_Z31_wrap_rcPolyMesh_borderSize_getv
_Z31_wrap_rcPolyMesh_borderSize_setv
_Z32_wrap_DT_CROWDAGENT_TARGET_VALIDv
_Z32_wrap_DT_NAVMESH_STATE_MAGIC_getv
_Z32_wrap_DT_TILECACHE_NULL_AREA_getv
_Z32_wrap_DU_DRAWNAVMESH_COLOR_TILESv
_Z32_wrap_DU_DRAWNAVMESH_OFFMESHCONSv
_Z32_wrap_InputGeom_getConvexVolumesv
_Z32_wrap_InputGeom_getMeshBoundsMaxv
_Z32_wrap_InputGeom_getMeshBoundsMinv
_Z32_wrap_RC_CONTOUR_TESS_AREA_EDGESv
_Z32_wrap_RC_CONTOUR_TESS_WALL_EDGESv
_Z32_wrap_Sample_m_agentMaxClimb_getv
_Z32_wrap_Sample_m_agentMaxClimb_setv
_Z32_wrap_Sample_m_agentMaxSlope_getv
_Z32_wrap_Sample_m_agentMaxSlope_setv
_Z32_wrap_Sample_m_regionMinSize_getv
_Z32_wrap_Sample_m_regionMinSize_setv
_Z32_wrap_Sample_resetCommonSettingsv
_Z32_wrap_delete_dtOffMeshConnectionv
_Z32_wrap_delete_dtTileCacheObstaclev
_Z32_wrap_delete_dtTileCachePolyMeshv
_Z32_wrap_delete_rcChunkyTriMeshNodev
_Z32_wrap_dtAllocTileCacheContourSetv
_Z32_wrap_dtCompressedTile_flags_getv
_Z32_wrap_dtCompressedTile_flags_setv
_Z32_wrap_dtCrowdAgent_targetPos_getv
_Z32_wrap_dtCrowdAgent_targetPos_setv
_Z32_wrap_dtCrowdAgent_targetRef_getv
_Z32_wrap_dtCrowdAgent_targetRef_setv
_Z32_wrap_dtDecompressTileCacheLayerv
_Z32_wrap_dtLocalBoundary_getSegmentv
_Z32_wrap_dtMeshHeader_polyCount_getv
_Z32_wrap_dtMeshHeader_polyCount_setv
_Z32_wrap_dtMeshHeader_vertCount_getv
_Z32_wrap_dtMeshHeader_vertCount_setv
_Z32_wrap_dtMeshTile_detailVerts_getv
_Z32_wrap_dtMeshTile_detailVerts_setv
_Z32_wrap_dtMeshTile_offMeshCons_getv
_Z32_wrap_dtMeshTile_offMeshCons_setv
_Z32_wrap_dtNavMeshQuery_getNodePoolv
_Z32_wrap_dtNavMesh_decodePolyIdPolyv
_Z32_wrap_dtNavMesh_decodePolyIdSaltv
_Z32_wrap_dtNavMesh_decodePolyIdTilev
_Z32_wrap_dtNavMesh_getTileStateSizev
_Z32_wrap_dtNavMesh_restoreTileStatev
_Z32_wrap_dtPathCorridor_findCornersv
_Z32_wrap_dtPathCorridor_getLastPolyv
_Z32_wrap_dtPathCorridor_setCorridorv
_Z32_wrap_dtPolyDetail_vertCount_getv
_Z32_wrap_dtPolyDetail_vertCount_setv
_Z32_wrap_dtProximityGrid_queryItemsv
_Z32_wrap_dtTileCacheContour_reg_getv
_Z32_wrap_dtTileCacheContour_reg_setv
_Z32_wrap_dtTileCacheLayer_areas_getv
_Z32_wrap_dtTileCacheLayer_areas_setv
_Z32_wrap_dtTileCacheParams_orig_getv
_Z32_wrap_dtTileCacheParams_orig_setv
_Z32_wrap_dtTileCache_getObstacleRefv
_Z32_wrap_dtTileCache_removeObstaclev
_Z32_wrap_new_dtTileCacheLayerHeaderv
_Z32_wrap_rcAllocHeightfieldLayerSetv
_Z32_wrap_rcChunkyTriMesh_nnodes_getv
_Z32_wrap_rcChunkyTriMesh_nnodes_setv
_Z32_wrap_rcClearUnwalkableTrianglesv
_Z32_wrap_rcConfig_minRegionArea_getv
_Z32_wrap_rcConfig_minRegionArea_setv
_Z32_wrap_rcConfig_walkableClimb_getv
_Z32_wrap_rcConfig_walkableClimb_setv
_Z32_wrap_rcGetChunksOverlappingRectv
_Z32_wrap_rcHeightfield_freelist_getv
_Z32_wrap_rcHeightfield_freelist_setv
_Z32_wrap_rcMedianFilterWalkableAreav
_Z32_wrap_rcPolyMeshDetail_ntris_getv
_Z32_wrap_rcPolyMeshDetail_ntris_setv
_Z32_wrap_rcPolyMeshDetail_verts_getv
_Z32_wrap_rcPolyMeshDetail_verts_setv
_Z33_wrap_DT_COMPRESSEDTILE_FREE_DATAv
_Z33_wrap_DT_CROWDAGENT_STATE_INVALIDv
_Z33_wrap_DT_CROWDAGENT_STATE_OFFMESHv
_Z33_wrap_DT_CROWDAGENT_STATE_WALKINGv
_Z33_wrap_DT_CROWDAGENT_TARGET_FAILEDv
_Z33_wrap_DT_CROWD_OBSTACLE_AVOIDANCEv
_Z33_wrap_InputGeom_drawConvexVolumesv
_Z33_wrap_RC_TIMER_MARK_CYLINDER_AREAv
_Z33_wrap_Sample_handleCommonSettingsv
_Z33_wrap_delete_Sample_TempObstaclesv
_Z33_wrap_delete_rcCompactHeightfieldv
_Z33_wrap_dtCompressedTile_header_getv
_Z33_wrap_dtCompressedTile_header_setv
_Z33_wrap_dtCrowdAgentAnimation_t_getv
_Z33_wrap_dtCrowdAgentAnimation_t_setv
_Z33_wrap_dtCrowd_requestMoveVelocityv
_Z33_wrap_dtMeshTile_detailMeshes_getv
_Z33_wrap_dtMeshTile_detailMeshes_setv
_Z33_wrap_dtObstacleSegment_touch_getv
_Z33_wrap_dtObstacleSegment_touch_setv
_Z33_wrap_dtOffMeshConnection_pos_getv
_Z33_wrap_dtOffMeshConnection_pos_setv
_Z33_wrap_dtOffMeshConnection_rad_getv
_Z33_wrap_dtOffMeshConnection_rad_setv
_Z33_wrap_dtPathCorridor_fixPathStartv
_Z33_wrap_dtPathCorridor_getFirstPolyv
_Z33_wrap_dtPathCorridor_getPathCountv
_Z33_wrap_dtPathCorridor_movePositionv
_Z33_wrap_dtProximityGrid_getCellSizev
_Z33_wrap_dtTileCacheContour_area_getv
_Z33_wrap_dtTileCacheContour_area_setv
_Z33_wrap_dtTileCacheHeaderSwapEndianv
_Z33_wrap_dtTileCacheLayer_header_getv
_Z33_wrap_dtTileCacheLayer_header_setv
_Z33_wrap_dtTileCacheObstacle_pos_getv
_Z33_wrap_dtTileCacheObstacle_pos_setv
_Z33_wrap_dtTileCacheParams_width_getv
_Z33_wrap_dtTileCacheParams_width_setv
_Z33_wrap_dtTileCachePolyMesh_nvp_getv
_Z33_wrap_dtTileCachePolyMesh_nvp_setv
_Z33_wrap_duDebugDrawHeightfieldLayerv
_Z33_wrap_duDebugDrawHeightfieldSolidv
_Z33_wrap_rcCompactHeightfield_ch_getv
_Z33_wrap_rcCompactHeightfield_ch_setv
_Z33_wrap_rcCompactHeightfield_cs_getv
_Z33_wrap_rcCompactHeightfield_cs_setv
_Z33_wrap_rcConfig_walkableHeight_getv
_Z33_wrap_rcConfig_walkableHeight_setv
_Z33_wrap_rcConfig_walkableRadius_getv
_Z33_wrap_rcConfig_walkableRadius_setv
_Z33_wrap_rcContourSet_borderSize_getv
_Z33_wrap_rcContourSet_borderSize_setv
_Z33_wrap_rcHeightfieldLayer_bmax_getv
_Z33_wrap_rcHeightfieldLayer_bmax_setv
_Z33_wrap_rcHeightfieldLayer_bmin_getv
_Z33_wrap_rcHeightfieldLayer_bmin_setv
_Z33_wrap_rcHeightfieldLayer_cons_getv
_Z33_wrap_rcHeightfieldLayer_cons_setv
_Z33_wrap_rcHeightfieldLayer_hmax_getv
_Z33_wrap_rcHeightfieldLayer_hmax_setv
_Z33_wrap_rcHeightfieldLayer_hmin_getv
_Z33_wrap_rcHeightfieldLayer_hmin_setv
_Z33_wrap_rcHeightfieldLayer_maxx_getv
_Z33_wrap_rcHeightfieldLayer_maxx_setv
_Z33_wrap_rcHeightfieldLayer_maxy_getv
_Z33_wrap_rcHeightfieldLayer_maxy_setv
_Z33_wrap_rcHeightfieldLayer_minx_getv
_Z33_wrap_rcHeightfieldLayer_minx_setv
_Z33_wrap_rcHeightfieldLayer_miny_getv
_Z33_wrap_rcHeightfieldLayer_miny_setv
_Z33_wrap_rcPolyMeshDetail_meshes_getv
_Z33_wrap_rcPolyMeshDetail_meshes_setv
_Z33_wrap_rcPolyMeshDetail_nverts_getv
_Z33_wrap_rcPolyMeshDetail_nverts_setv
_Z34_wrap_DT_NAVMESH_STATE_VERSION_getv
_Z34_wrap_InputGeom_deleteConvexVolumev
_Z34_wrap_RC_TIMER_BUILD_DISTANCEFIELDv
_Z34_wrap_RC_TIMER_BUILD_REGIONS_FLOODv
_Z34_wrap_RC_TIMER_RASTERIZE_TRIANGLESv
_Z34_wrap_Sample_m_regionMergeSize_getv
_Z34_wrap_Sample_m_regionMergeSize_setv
_Z34_wrap_delete_dtCrowdAgentAnimationv
_Z34_wrap_delete_dtCrowdAgentDebugInfov
_Z34_wrap_delete_dtNavMeshCreateParamsv
_Z34_wrap_delete_dtTileCacheCompressorv
_Z34_wrap_delete_dtTileCacheContourSetv
_Z34_wrap_delete_rcHeightfieldLayerSetv
_Z34_wrap_dtClosestHeightPointTrianglev
_Z34_wrap_dtCrowdAgent_cornerFlags_getv
_Z34_wrap_dtCrowdAgent_cornerFlags_setv
_Z34_wrap_dtCrowdAgent_cornerPolys_getv
_Z34_wrap_dtCrowdAgent_cornerPolys_setv
_Z34_wrap_dtCrowdAgent_cornerVerts_getv
_Z34_wrap_dtCrowdAgent_cornerVerts_setv
_Z34_wrap_dtCrowdAgent_targetState_getv
_Z34_wrap_dtCrowdAgent_targetState_setv
_Z34_wrap_dtFreeObstacleAvoidanceQueryv
_Z34_wrap_dtMergeCorridorStartShortcutv
_Z34_wrap_dtMeshHeader_bvNodeCount_getv
_Z34_wrap_dtMeshHeader_bvNodeCount_setv
_Z34_wrap_dtMeshHeader_offMeshBase_getv
_Z34_wrap_dtMeshHeader_offMeshBase_setv
_Z34_wrap_dtMeshTile_linksFreeList_getv
_Z34_wrap_dtMeshTile_linksFreeList_setv
_Z34_wrap_dtNavMeshCreateParams_ch_getv
_Z34_wrap_dtNavMeshCreateParams_ch_setv
_Z34_wrap_dtNavMeshCreateParams_cs_getv
_Z34_wrap_dtNavMeshCreateParams_cs_setv
_Z34_wrap_dtNavMeshParams_maxPolys_getv
_Z34_wrap_dtNavMeshParams_maxPolys_setv
_Z34_wrap_dtNavMeshParams_maxTiles_getv
_Z34_wrap_dtNavMeshParams_maxTiles_setv
_Z34_wrap_dtNavMeshQuery_getPolyHeightv
_Z34_wrap_dtNavMeshQuery_queryPolygonsv
_Z34_wrap_dtOffMeshConnection_poly_getv
_Z34_wrap_dtOffMeshConnection_poly_setv
_Z34_wrap_dtOffMeshConnection_side_getv
_Z34_wrap_dtOffMeshConnection_side_setv
_Z34_wrap_dtPathQueue_getRequestStatusv
_Z34_wrap_dtTileCacheContour_verts_getv
_Z34_wrap_dtTileCacheContour_verts_setv
_Z34_wrap_dtTileCacheLayer_heights_getv
_Z34_wrap_dtTileCacheLayer_heights_setv
_Z34_wrap_dtTileCacheObstacle_next_getv
_Z34_wrap_dtTileCacheObstacle_next_setv
_Z34_wrap_dtTileCacheObstacle_salt_getv
_Z34_wrap_dtTileCacheObstacle_salt_setv
_Z34_wrap_dtTileCacheParams_height_getv
_Z34_wrap_dtTileCacheParams_height_setv
_Z34_wrap_dtTileCache_buildNavMeshTilev
_Z34_wrap_dtTileCache_decodeTileIdSaltv
_Z34_wrap_dtTileCache_decodeTileIdTilev
_Z34_wrap_dtTileCache_encodeObstacleIdv
_Z34_wrap_dtTileCache_getObstacleByRefv
_Z34_wrap_dtTileCache_getObstacleCountv
_Z34_wrap_duDebugDrawHeightfieldLayersv
_Z34_wrap_duDebugDrawRegionConnectionsv
_Z34_wrap_duDebugDrawTileCacheContoursv
_Z34_wrap_duDebugDrawTileCachePolyMeshv
_Z34_wrap_new_dtObstacleAvoidanceQueryv
_Z34_wrap_rcChunkyTriMeshNode_bmax_getv
_Z34_wrap_rcChunkyTriMeshNode_bmax_setv
_Z34_wrap_rcChunkyTriMeshNode_bmin_getv
_Z34_wrap_rcChunkyTriMeshNode_bmin_setv
_Z34_wrap_rcConfig_maxVertsPerPoly_getv
_Z34_wrap_rcConfig_maxVertsPerPoly_setv
_Z34_wrap_rcConfig_mergeRegionArea_getv
_Z34_wrap_rcConfig_mergeRegionArea_setv
_Z34_wrap_rcContext_getAccumulatedTimev
_Z34_wrap_rcHeightfieldLayer_areas_getv
_Z34_wrap_rcHeightfieldLayer_areas_setv
_Z34_wrap_rcHeightfieldLayer_width_getv
_Z34_wrap_rcHeightfieldLayer_width_setv
_Z34_wrap_rcPolyMeshDetail_nmeshes_getv
_Z34_wrap_rcPolyMeshDetail_nmeshes_setv
_Z35_wrap_DT_CROWDAGENT_MAX_CORNERS_getv
_Z35_wrap_DT_CROWDAGENT_TARGET_VELOCITYv
_Z35_wrap_RC_TIMER_BUILD_CONTOURS_TRACEv
_Z35_wrap_RC_TIMER_BUILD_POLYMESHDETAILv
_Z35_wrap_RC_TIMER_BUILD_REGIONS_EXPANDv
_Z35_wrap_RC_TIMER_BUILD_REGIONS_FILTERv
_Z35_wrap_RC_TIMER_FILTER_LOW_OBSTACLESv
_Z35_wrap_RC_TIMER_MARK_CONVEXPOLY_AREAv
_Z35_wrap_RC_TIMER_MERGE_POLYMESHDETAILv
_Z35_wrap_Sample_m_detailSampleDist_getv
_Z35_wrap_Sample_m_detailSampleDist_setv
_Z35_wrap_delete_dtTileCacheLayerHeaderv
_Z35_wrap_delete_dtTileCacheMeshProcessv
_Z35_wrap_dtAllocObstacleAvoidanceQueryv
_Z35_wrap_dtCompressedTile_dataSize_getv
_Z35_wrap_dtCompressedTile_dataSize_setv
_Z35_wrap_dtCrowdAgentDebugInfo_idx_getv
_Z35_wrap_dtCrowdAgentDebugInfo_idx_setv
_Z35_wrap_dtCrowdAgentDebugInfo_vod_getv
_Z35_wrap_dtCrowdAgentDebugInfo_vod_setv
_Z35_wrap_dtCrowdAgentParams_height_getv
_Z35_wrap_dtCrowdAgentParams_height_setv
_Z35_wrap_dtCrowdAgentParams_radius_getv
_Z35_wrap_dtCrowdAgentParams_radius_setv
_Z35_wrap_dtCrowdAgent_desiredSpeed_getv
_Z35_wrap_dtCrowdAgent_desiredSpeed_setv
_Z35_wrap_dtCrowdAgent_targetReplan_getv
_Z35_wrap_dtCrowdAgent_targetReplan_setv
_Z35_wrap_dtCrowd_updateAgentParametersv
_Z35_wrap_dtMeshHeader_maxLinkCount_getv
_Z35_wrap_dtMeshHeader_maxLinkCount_setv
_Z35_wrap_dtNavMeshCreateParams_nvp_getv
_Z35_wrap_dtNavMeshCreateParams_nvp_setv
_Z35_wrap_dtNavMeshParams_tileWidth_getv
_Z35_wrap_dtNavMeshParams_tileWidth_setv
_Z35_wrap_dtNavMeshQuery_isInClosedListv
_Z35_wrap_dtNavMeshQuery_isValidPolyRefv
_Z35_wrap_dtNavMesh_getTileAndPolyByRefv
_Z35_wrap_dtObstacleAvoidanceQuery_initv
_Z35_wrap_dtOffMeshConnection_flags_getv
_Z35_wrap_dtOffMeshConnection_flags_setv
_Z35_wrap_dtQueryFilter_getExcludeFlagsv
_Z35_wrap_dtQueryFilter_getIncludeFlagsv
_Z35_wrap_dtQueryFilter_setExcludeFlagsv
_Z35_wrap_dtQueryFilter_setIncludeFlagsv
_Z35_wrap_dtTileCacheContour_nverts_getv
_Z35_wrap_dtTileCacheContour_nverts_setv
_Z35_wrap_dtTileCacheLayerHeader_tx_getv
_Z35_wrap_dtTileCacheLayerHeader_tx_setv
_Z35_wrap_dtTileCacheLayerHeader_ty_getv
_Z35_wrap_dtTileCacheLayerHeader_ty_setv
_Z35_wrap_dtTileCacheLayer_regCount_getv
_Z35_wrap_dtTileCacheLayer_regCount_setv
_Z35_wrap_dtTileCacheObstacle_state_getv
_Z35_wrap_dtTileCacheObstacle_state_setv
_Z35_wrap_dtTileCachePolyMesh_areas_getv
_Z35_wrap_dtTileCachePolyMesh_areas_setv
_Z35_wrap_dtTileCachePolyMesh_flags_getv
_Z35_wrap_dtTileCachePolyMesh_flags_setv
_Z35_wrap_dtTileCachePolyMesh_polys_getv
_Z35_wrap_dtTileCachePolyMesh_polys_setv
_Z35_wrap_dtTileCachePolyMesh_verts_getv
_Z35_wrap_dtTileCachePolyMesh_verts_setv
_Z35_wrap_dtTileCache_getObstacleBoundsv
_Z35_wrap_new_dtObstacleAvoidanceParamsv
_Z35_wrap_rcCompactHeightfield_bmax_getv
_Z35_wrap_rcCompactHeightfield_bmax_setv
_Z35_wrap_rcCompactHeightfield_bmin_getv
_Z35_wrap_rcCompactHeightfield_bmin_setv
_Z35_wrap_rcCompactHeightfield_dist_getv
_Z35_wrap_rcCompactHeightfield_dist_setv
_Z35_wrap_rcConfig_detailSampleDist_getv
_Z35_wrap_rcConfig_detailSampleDist_setv
_Z35_wrap_rcGetChunksOverlappingSegmentv
_Z35_wrap_rcHeightfieldLayer_height_getv
_Z35_wrap_rcHeightfieldLayer_height_setv
_Z36_wrap_DT_POLYTYPE_OFFMESH_CONNECTIONv
_Z36_wrap_DT_TILECACHE_WALKABLE_AREA_getv
_Z36_wrap_InputGeom_addOffMeshConnectionv
_Z36_wrap_InputGeom_getConvexVolumeCountv
_Z36_wrap_dtCrowdAgentAnimation_tmax_getv
_Z36_wrap_dtCrowdAgentAnimation_tmax_setv
_Z36_wrap_dtCrowd_getVelocitySampleCountv
_Z36_wrap_dtMeshHeader_bvQuantFactor_getv
_Z36_wrap_dtMeshHeader_bvQuantFactor_setv
_Z36_wrap_dtMeshHeader_walkableClimb_getv
_Z36_wrap_dtMeshHeader_walkableClimb_setv
_Z36_wrap_dtNavMeshCreateParams_bmax_getv
_Z36_wrap_dtNavMeshCreateParams_bmax_setv
_Z36_wrap_dtNavMeshCreateParams_bmin_getv
_Z36_wrap_dtNavMeshCreateParams_bmin_setv
_Z36_wrap_dtNavMeshParams_tileHeight_getv
_Z36_wrap_dtNavMeshParams_tileHeight_setv
_Z36_wrap_dtNavMeshQuery_findNearestPolyv
_Z36_wrap_dtNavMeshQuery_findRandomPointv
_Z36_wrap_dtObstacleAvoidanceQuery_resetv
_Z36_wrap_dtOffMeshConnection_userId_getv
_Z36_wrap_dtOffMeshConnection_userId_setv
_Z36_wrap_dtPathCorridor_trimInvalidPathv
_Z36_wrap_dtProximityGrid_getItemCountAtv
_Z36_wrap_dtTileCacheCompressor_compressv
_Z36_wrap_dtTileCacheMeshProcess_processv
_Z36_wrap_dtTileCacheObstacle_height_getv
_Z36_wrap_dtTileCacheObstacle_height_setv
_Z36_wrap_dtTileCacheObstacle_radius_getv
_Z36_wrap_dtTileCacheObstacle_radius_setv
_Z36_wrap_dtTileCacheParams_maxTiles_getv
_Z36_wrap_dtTileCacheParams_maxTiles_setv
_Z36_wrap_dtTileCachePolyMesh_npolys_getv
_Z36_wrap_dtTileCachePolyMesh_npolys_setv
_Z36_wrap_dtTileCachePolyMesh_nverts_getv
_Z36_wrap_dtTileCachePolyMesh_nverts_setv
_Z36_wrap_duDebugDrawHeightfieldWalkablev
_Z36_wrap_duDebugDrawTileCacheLayerAreasv
_Z36_wrap_findRandomPoint_frand_func_ptrv
_Z36_wrap_rcCompactHeightfield_areas_getv
_Z36_wrap_rcCompactHeightfield_areas_setv
_Z36_wrap_rcCompactHeightfield_cells_getv
_Z36_wrap_rcCompactHeightfield_cells_setv
_Z36_wrap_rcCompactHeightfield_spans_getv
_Z36_wrap_rcCompactHeightfield_spans_setv
_Z36_wrap_rcCompactHeightfield_width_getv
_Z36_wrap_rcCompactHeightfield_width_setv
_Z36_wrap_rcFilterWalkableLowHeightSpansv
_Z36_wrap_rcHeightfieldLayer_heights_getv
_Z36_wrap_rcHeightfieldLayer_heights_setv
_Z37_wrap_DT_CROWDAGENT_TARGET_REQUESTINGv
_Z37_wrap_Sample_TempObstacles_getTilePosv
_Z37_wrap_delete_dtObstacleAvoidanceQueryv
_Z37_wrap_dtCompressedTile_compressed_getv
_Z37_wrap_dtCompressedTile_compressed_setv
_Z37_wrap_dtCrowdAgentParams_maxSpeed_getv
_Z37_wrap_dtCrowdAgentParams_maxSpeed_setv
_Z37_wrap_dtCrowdAgentParams_userData_getv
_Z37_wrap_dtCrowdAgentParams_userData_setv
_Z37_wrap_dtCrowdAgent_targetPathqRef_getv
_Z37_wrap_dtCrowdAgent_targetPathqRef_setv
_Z37_wrap_dtLocalBoundary_getSegmentCountv
_Z37_wrap_dtMeshHeader_detailTriCount_getv
_Z37_wrap_dtMeshHeader_detailTriCount_setv
_Z37_wrap_dtMeshHeader_walkableHeight_getv
_Z37_wrap_dtMeshHeader_walkableHeight_setv
_Z37_wrap_dtMeshHeader_walkableRadius_getv
_Z37_wrap_dtMeshHeader_walkableRadius_setv
_Z37_wrap_dtNavMeshCreateParams_polys_getv
_Z37_wrap_dtNavMeshCreateParams_polys_setv
_Z37_wrap_dtNavMeshCreateParams_tileX_getv
_Z37_wrap_dtNavMeshCreateParams_tileX_setv
_Z37_wrap_dtNavMeshCreateParams_tileY_getv
_Z37_wrap_dtNavMeshCreateParams_tileY_setv
_Z37_wrap_dtNavMeshCreateParams_verts_getv
_Z37_wrap_dtNavMeshCreateParams_verts_setv
_Z37_wrap_dtNavMeshQuery_findStraightPathv
_Z37_wrap_dtNavMeshQuery_moveAlongSurfacev
_Z37_wrap_dtTileCacheContourSet_conts_getv
_Z37_wrap_dtTileCacheContourSet_conts_setv
_Z37_wrap_dtTileCacheLayerHeader_bmax_getv
_Z37_wrap_dtTileCacheLayerHeader_bmax_setv
_Z37_wrap_dtTileCacheLayerHeader_bmin_getv
_Z37_wrap_dtTileCacheLayerHeader_bmin_setv
_Z37_wrap_dtTileCacheLayerHeader_hmax_getv
_Z37_wrap_dtTileCacheLayerHeader_hmax_setv
_Z37_wrap_dtTileCacheLayerHeader_hmin_getv
_Z37_wrap_dtTileCacheLayerHeader_hmin_setv
_Z37_wrap_dtTileCacheLayerHeader_maxx_getv
_Z37_wrap_dtTileCacheLayerHeader_maxx_setv
_Z37_wrap_dtTileCacheLayerHeader_maxy_getv
_Z37_wrap_dtTileCacheLayerHeader_maxy_setv
_Z37_wrap_dtTileCacheLayerHeader_minx_getv
_Z37_wrap_dtTileCacheLayerHeader_minx_setv
_Z37_wrap_dtTileCacheLayerHeader_miny_getv
_Z37_wrap_dtTileCacheLayerHeader_miny_setv
_Z37_wrap_dtTileCacheObstacle_pending_getv
_Z37_wrap_dtTileCacheObstacle_pending_setv
_Z37_wrap_dtTileCacheObstacle_touched_getv
_Z37_wrap_dtTileCacheObstacle_touched_setv
_Z37_wrap_dtTileCache_buildNavMeshTilesAtv
_Z37_wrap_dtTileCache_calcTightTileBoundsv
_Z37_wrap_rcCompactHeightfield_height_getv
_Z37_wrap_rcCompactHeightfield_height_setv
_Z37_wrap_rcConfig_walkableSlopeAngle_getv
_Z37_wrap_rcConfig_walkableSlopeAngle_setv
_Z38_wrap_DT_CROWDAGENT_MAX_NEIGHBOURS_getv
_Z38_wrap_InputGeom_drawOffMeshConnectionsv
_Z38_wrap_InputGeom_getOffMeshConnectionIdv
_Z38_wrap_RC_TIMER_BUILD_CONTOURS_SIMPLIFYv
_Z38_wrap_RC_TIMER_BUILD_REGIONS_WATERSHEDv
_Z38_wrap_Sample_TempObstacles_handleBuildv
_Z38_wrap_delete_dtObstacleAvoidanceParamsv
_Z38_wrap_dtCrowdAgentAnimation_active_getv
_Z38_wrap_dtCrowdAgentAnimation_active_setv
_Z38_wrap_dtCrowdAgentAnimation_endPos_getv
_Z38_wrap_dtCrowdAgentAnimation_endPos_setv
_Z38_wrap_dtCrowdAgentDebugInfo_optEnd_getv
_Z38_wrap_dtCrowdAgentDebugInfo_optEnd_setv
_Z38_wrap_dtCrowdAgent_topologyOptTime_getv
_Z38_wrap_dtCrowdAgent_topologyOptTime_setv
_Z38_wrap_dtFreeObstacleAvoidanceDebugDatav
_Z38_wrap_dtMeshHeader_detailMeshCount_getv
_Z38_wrap_dtMeshHeader_detailMeshCount_setv
_Z38_wrap_dtMeshHeader_detailVertCount_getv
_Z38_wrap_dtMeshHeader_detailVertCount_setv
_Z38_wrap_dtMeshHeader_offMeshConCount_getv
_Z38_wrap_dtMeshHeader_offMeshConCount_setv
_Z38_wrap_dtNavMeshCreateParams_userId_getv
_Z38_wrap_dtNavMeshCreateParams_userId_setv
_Z38_wrap_dtTileCacheCompressor_decompressv
_Z38_wrap_dtTileCacheContourSet_nconts_getv
_Z38_wrap_dtTileCacheContourSet_nconts_setv
_Z38_wrap_dtTileCacheLayerHeader_magic_getv
_Z38_wrap_dtTileCacheLayerHeader_magic_setv
_Z38_wrap_dtTileCacheLayerHeader_width_getv
_Z38_wrap_dtTileCacheLayerHeader_width_setv
_Z38_wrap_dtTileCacheObstacle_npending_getv
_Z38_wrap_dtTileCacheObstacle_npending_setv
_Z38_wrap_dtTileCacheObstacle_ntouched_getv
_Z38_wrap_dtTileCacheObstacle_ntouched_setv
_Z38_wrap_dtTileCache_decodeObstacleIdSaltv
_Z38_wrap_duDebugDrawNavMeshPolysWithFlagsv
_Z38_wrap_duDebugDrawNavMeshWithClosedListv
_Z38_wrap_duDebugDrawTileCacheLayerRegionsv
_Z38_wrap_new_dtObstacleAvoidanceDebugDatav
_Z38_wrap_rcHeightfieldLayerSet_layers_getv
_Z38_wrap_rcHeightfieldLayerSet_layers_setv
_Z39_wrap_InputGeom_deleteOffMeshConnectionv
_Z39_wrap_RC_TIMER_BUILD_COMPACTHEIGHTFIELDv
_Z39_wrap_RC_TIMER_BUILD_DISTANCEFIELD_BLURv
_Z39_wrap_RC_TIMER_BUILD_DISTANCEFIELD_DISTv
_Z39_wrap_Sample_TempObstacles_handleUpdatev
_Z39_wrap_Sample_m_detailSampleMaxError_getv
_Z39_wrap_Sample_m_detailSampleMaxError_setv
_Z39_wrap_Sample_m_monotonePartitioning_getv
_Z39_wrap_Sample_m_monotonePartitioning_setv
_Z39_wrap_dtAllocObstacleAvoidanceDebugDatav
_Z39_wrap_dtCrowdAgentAnimation_initPos_getv
_Z39_wrap_dtCrowdAgentAnimation_initPos_setv
_Z39_wrap_dtCrowdAgentAnimation_polyRef_getv
_Z39_wrap_dtCrowdAgentAnimation_polyRef_setv
_Z39_wrap_dtCrowdAgent_targetReplanTime_getv
_Z39_wrap_dtCrowdAgent_targetReplanTime_setv
_Z39_wrap_dtNavMeshQuery_closestPointOnPolyv
_Z39_wrap_dtNavMeshQuery_findDistanceToWallv
_Z39_wrap_dtNavMeshQuery_getAttachedNavMeshv
_Z39_wrap_dtNavMeshQuery_initSlicedFindPathv
_Z39_wrap_dtObstacleAvoidanceDebugData_initv
_Z39_wrap_dtPathCorridor_moveTargetPositionv
_Z39_wrap_dtTileCacheLayerHeader_height_getv
_Z39_wrap_dtTileCacheLayerHeader_height_setv
_Z39_wrap_dtTileCacheLayerHeader_tlayer_getv
_Z39_wrap_dtTileCacheLayerHeader_tlayer_setv
_Z39_wrap_rcConfig_detailSampleMaxError_getv
_Z39_wrap_rcConfig_detailSampleMaxError_setv
_Z39_wrap_rcHeightfieldLayerSet_nlayers_getv
_Z39_wrap_rcHeightfieldLayerSet_nlayers_setv
_Z40_wrap_DT_STRAIGHTPATH_OFFMESH_CONNECTIONv
_Z40_wrap_InputGeom_getOffMeshConnectionDirsv
_Z40_wrap_InputGeom_getOffMeshConnectionRadsv
_Z40_wrap_dtCrowdAgentAnimation_startPos_getv
_Z40_wrap_dtCrowdAgentAnimation_startPos_setv
_Z40_wrap_dtCrowdAgentDebugInfo_optStart_getv
_Z40_wrap_dtCrowdAgentDebugInfo_optStart_setv
_Z40_wrap_dtCrowdAgentParams_updateFlags_getv
_Z40_wrap_dtCrowdAgentParams_updateFlags_setv
_Z40_wrap_dtCrowd_getObstacleAvoidanceParamsv
_Z40_wrap_dtCrowd_setObstacleAvoidanceParamsv
_Z40_wrap_dtNavMeshQuery_getPolyWallSegmentsv
_Z40_wrap_dtObstacleAvoidanceDebugData_resetv
_Z40_wrap_dtObstacleAvoidanceQuery_addCirclev
_Z40_wrap_dtTileCacheLayerHeader_version_getv
_Z40_wrap_dtTileCacheLayerHeader_version_setv
_Z40_wrap_dtTileCacheParams_maxObstacles_getv
_Z40_wrap_dtTileCacheParams_maxObstacles_setv
_Z40_wrap_duDebugDrawCompactHeightfieldSolidv
_Z40_wrap_rcAllocSetCustom_freeFunc_func_ptrPv
_Z40_wrap_rcCompactHeightfield_spanCount_getv
_Z40_wrap_rcCompactHeightfield_spanCount_setv
_Z41_wrap_InputGeom_getOffMeshConnectionAreasv
_Z41_wrap_InputGeom_getOffMeshConnectionCountv
_Z41_wrap_InputGeom_getOffMeshConnectionFlagsv
_Z41_wrap_InputGeom_getOffMeshConnectionVertsv
_Z41_wrap_Sample_TempObstacles_handleSettingsv
_Z41_wrap_Sample_TempObstacles_m_tileSize_getv
_Z41_wrap_Sample_TempObstacles_m_tileSize_setv
_Z41_wrap_delete_dtObstacleAvoidanceDebugDatav
_Z41_wrap_dtCompressedTile_compressedSize_getv
_Z41_wrap_dtCompressedTile_compressedSize_setv
_Z41_wrap_dtNavMeshCreateParams_polyAreas_getv
_Z41_wrap_dtNavMeshCreateParams_polyAreas_setv
_Z41_wrap_dtNavMeshCreateParams_polyCount_getv
_Z41_wrap_dtNavMeshCreateParams_polyCount_setv
_Z41_wrap_dtNavMeshCreateParams_polyFlags_getv
_Z41_wrap_dtNavMeshCreateParams_polyFlags_setv
_Z41_wrap_dtNavMeshCreateParams_tileLayer_getv
_Z41_wrap_dtNavMeshCreateParams_tileLayer_setv
_Z41_wrap_dtNavMeshCreateParams_vertCount_getv
_Z41_wrap_dtNavMeshCreateParams_vertCount_setv
_Z41_wrap_dtNavMeshQuery_findPolysAroundShapev
_Z41_wrap_dtNavMeshQuery_updateSlicedFindPathv
_Z41_wrap_dtNavMesh_getOffMeshConnectionByRefv
_Z41_wrap_dtNavMesh_getTileAndPolyByRefUnsafev
_Z41_wrap_dtObstacleAvoidanceQuery_addSegmentv
_Z41_wrap_dtPathCorridor_optimizePathTopologyv
_Z41_wrap_dtTileCacheParams_walkableClimb_getv
_Z41_wrap_dtTileCacheParams_walkableClimb_setv
_Z41_wrap_rcAllocSetCustom_allocFunc_func_ptri11rcAllocHint
_Z41_wrap_rcChunkyTriMesh_maxTrisPerChunk_getv
_Z41_wrap_rcChunkyTriMesh_maxTrisPerChunk_setv
_Z41_wrap_rcCompactHeightfield_borderSize_getv
_Z41_wrap_rcCompactHeightfield_borderSize_setv
_Z41_wrap_rcCompactHeightfield_maxRegions_getv
_Z41_wrap_rcCompactHeightfield_maxRegions_setv
_Z41_wrap_rcConfig_maxSimplificationError_getv
_Z41_wrap_rcConfig_maxSimplificationError_setv
_Z41_wrap_rcFilterLowHangingWalkableObstaclesv
_Z42_wrap_Sample_TempObstacles_addTempObstaclev
_Z42_wrap_dtNavMeshCreateParams_detailTris_getv
_Z42_wrap_dtNavMeshCreateParams_detailTris_setv
_Z42_wrap_dtNavMeshQuery_findPolysAroundCirclev
_Z42_wrap_dtTileCacheParams_walkableHeight_getv
_Z42_wrap_dtTileCacheParams_walkableHeight_setv
_Z42_wrap_dtTileCacheParams_walkableRadius_getv
_Z42_wrap_dtTileCacheParams_walkableRadius_setv
_Z42_wrap_dtTileCache_decodeObstacleIdObstaclev
_Z42_wrap_duDebugDrawCompactHeightfieldRegionsv
_Z42_wrap_rcCompactHeightfield_maxDistance_getv
_Z42_wrap_rcCompactHeightfield_maxDistance_setv
_Z43_wrap_DT_CROWDAGENT_TARGET_WAITING_FOR_PATHv
_Z43_wrap_DT_CROWD_MAX_OBSTAVOIDANCE_PARAMS_getv
_Z43_wrap_Sample_TempObstacles_getObstacleCountv
_Z43_wrap_dtNavMeshCreateParams_buildBvTree_getv
_Z43_wrap_dtNavMeshCreateParams_buildBvTree_setv
_Z43_wrap_dtNavMeshCreateParams_detailVerts_getv
_Z43_wrap_dtNavMeshCreateParams_detailVerts_setv
_Z43_wrap_dtNavMeshQuery_finalizeSlicedFindPathv
_Z43_wrap_dtNavMeshQuery_findLocalNeighbourhoodv
_Z43_wrap_dtObstacleAvoidanceParams_velBias_getv
_Z43_wrap_dtObstacleAvoidanceParams_velBias_setv
_Z43_wrap_dtPathCorridor_optimizePathVisibilityv
_Z43_wrap_duDebugDrawCompactHeightfieldDistancev
_Z44_wrap_DT_CROWDAGENT_TARGET_WAITING_FOR_QUEUEv
_Z44_wrap_Sample_TempObstacles_handleMeshChangedv
_Z44_wrap_dtCrowdAgentParams_maxAcceleration_getv
_Z44_wrap_dtCrowdAgentParams_maxAcceleration_setv
_Z44_wrap_dtNavMeshCreateParams_detailMeshes_getv
_Z44_wrap_dtNavMeshCreateParams_detailMeshes_setv
_Z44_wrap_dtObstacleAvoidanceDebugData_addSamplev
_Z44_wrap_dtObstacleAvoidanceParams_gridSize_getv
_Z44_wrap_dtObstacleAvoidanceParams_gridSize_setv
_Z44_wrap_rcCompactHeightfield_walkableClimb_getv
_Z44_wrap_rcCompactHeightfield_walkableClimb_setv
_Z45_wrap_Sample_TempObstacles_m_maxObstacles_getv
_Z45_wrap_Sample_TempObstacles_m_maxObstacles_setv
_Z45_wrap_Sample_TempObstacles_removeTempObstaclev
_Z45_wrap_dtCrowdAgentParams_separationWeight_getv
_Z45_wrap_dtCrowdAgentParams_separationWeight_setv
_Z45_wrap_dtNavMeshCreateParams_offMeshConDir_getv
_Z45_wrap_dtNavMeshCreateParams_offMeshConDir_setv
_Z45_wrap_dtNavMeshCreateParams_offMeshConRad_getv
_Z45_wrap_dtNavMeshCreateParams_offMeshConRad_setv
_Z45_wrap_dtNavMeshCreateParams_walkableClimb_getv
_Z45_wrap_dtNavMeshCreateParams_walkableClimb_setv
_Z45_wrap_dtObstacleAvoidanceParams_horizTime_getv
_Z45_wrap_dtObstacleAvoidanceParams_horizTime_setv
_Z45_wrap_dtObstacleAvoidanceParams_weightToi_getv
_Z45_wrap_dtObstacleAvoidanceParams_weightToi_setv
_Z45_wrap_dtTileCacheCompressor_maxCompressedSizev
_Z45_wrap_rcCompactHeightfield_walkableHeight_getv
_Z45_wrap_rcCompactHeightfield_walkableHeight_setv
_Z46_wrap_dtNavMeshCreateParams_detailTriCount_getv
_Z46_wrap_dtNavMeshCreateParams_detailTriCount_setv
_Z46_wrap_dtNavMeshCreateParams_walkableHeight_getv
_Z46_wrap_dtNavMeshCreateParams_walkableHeight_setv
_Z46_wrap_dtNavMeshCreateParams_walkableRadius_getv
_Z46_wrap_dtNavMeshCreateParams_walkableRadius_setv
_Z46_wrap_dtObstacleAvoidanceParams_weightSide_getv
_Z46_wrap_dtObstacleAvoidanceParams_weightSide_setv
_Z46_wrap_dtPathCorridor_moveOverOffmeshConnectionv
_Z47_wrap_dtNavMeshCreateParams_offMeshConAreas_getv
_Z47_wrap_dtNavMeshCreateParams_offMeshConAreas_setv
_Z47_wrap_dtNavMeshCreateParams_offMeshConCount_getv
_Z47_wrap_dtNavMeshCreateParams_offMeshConCount_setv
_Z47_wrap_dtNavMeshCreateParams_offMeshConFlags_getv
_Z47_wrap_dtNavMeshCreateParams_offMeshConFlags_setv
_Z47_wrap_dtNavMeshCreateParams_offMeshConVerts_getv
_Z47_wrap_dtNavMeshCreateParams_offMeshConVerts_setv
_Z47_wrap_dtNavMeshQuery_closestPointOnPolyBoundaryv
_Z48_wrap_Sample_TempObstacles_clearAllTempObstaclesv
_Z48_wrap_dtCrowdAgentParams_collisionQueryRange_getv
_Z48_wrap_dtCrowdAgentParams_collisionQueryRange_setv
_Z48_wrap_dtNavMeshCreateParams_detailVertsCount_getv
_Z48_wrap_dtNavMeshCreateParams_detailVertsCount_setv
_Z48_wrap_dtNavMeshCreateParams_offMeshConUserID_getv
_Z48_wrap_dtNavMeshCreateParams_offMeshConUserID_setv
_Z48_wrap_dtNavMeshQuery_findRandomPointAroundCirclev
_Z48_wrap_dtObstacleAvoidanceDebugData_getSampleSizev
_Z48_wrap_dtObstacleAvoidanceParams_adaptiveDivs_getv
_Z48_wrap_dtObstacleAvoidanceParams_adaptiveDivs_setv
_Z48_wrap_dtObstacleAvoidanceParams_weightCurVel_getv
_Z48_wrap_dtObstacleAvoidanceParams_weightCurVel_setv
_Z48_wrap_dtObstacleAvoidanceParams_weightDesVel_getv
_Z48_wrap_dtObstacleAvoidanceParams_weightDesVel_setv
_Z48_wrap_dtObstacleAvoidanceQuery_getObstacleCirclev
_Z48_wrap_findRandomPointAroundCircle_frand_func_ptrv
_Z49_wrap_dtNavMesh_getOffMeshConnectionPolyEndPointsv
_Z49_wrap_dtObstacleAvoidanceDebugData_getSampleCountv
_Z49_wrap_dtObstacleAvoidanceParams_adaptiveDepth_getv
_Z49_wrap_dtObstacleAvoidanceParams_adaptiveDepth_setv
_Z49_wrap_dtObstacleAvoidanceParams_adaptiveRings_getv
_Z49_wrap_dtObstacleAvoidanceParams_adaptiveRings_setv
_Z49_wrap_dtObstacleAvoidanceQuery_getObstacleSegmentv
_Z49_wrap_dtObstacleAvoidanceQuery_sampleVelocityGridv
_Z50_wrap_dtCrowdAgentParams_obstacleAvoidanceType_getv
_Z50_wrap_dtCrowdAgentParams_obstacleAvoidanceType_setv
_Z50_wrap_dtCrowdAgentParams_pathOptimizationRange_getv
_Z50_wrap_dtCrowdAgentParams_pathOptimizationRange_setv
_Z50_wrap_dtNavMeshQuery_finalizeSlicedFindPathPartialv
_Z50_wrap_dtTileCacheParams_maxSimplificationError_getv
_Z50_wrap_dtTileCacheParams_maxSimplificationError_setv
_Z51_wrap_dtObstacleAvoidanceDebugData_getSamplePenaltyv
_Z51_wrap_dtObstacleAvoidanceDebugData_normalizeSamplesv
_Z52_wrap_dtObstacleAvoidanceDebugData_getSampleVelocityv
_Z53_wrap_dtObstacleAvoidanceQuery_getObstacleCircleCountv
_Z53_wrap_dtObstacleAvoidanceQuery_sampleVelocityAdaptivev
_Z54_wrap_dtObstacleAvoidanceQuery_getObstacleSegmentCountv
_Z64_wrap_dtObstacleAvoidanceDebugData_getSampleCollisionTimePenaltyv
_Z64_wrap_dtObstacleAvoidanceDebugData_getSamplePreferredSidePenaltyv
_Z66_wrap_dtObstacleAvoidanceDebugData_getSampleCurrentVelocityPenaltyv
_Z66_wrap_dtObstacleAvoidanceDebugData_getSampleDesiredVelocityPenaltyv
